; Function Attrs: mustprogress nounwind uwtable
define internal void @_ZNSt23_Sp_counted_ptr_inplaceIN12_GLOBAL__N_111FinalAction4ImplESaIvELN9__gnu_cxx12_Lock_policyE2EE10_M_disposeEv(ptr noundef nonnull align 8 dereferenceable(56) %0) unnamed_addr #5 align 2 personality ptr @__gxx_personality_v0 {
  %2 = getelementptr inbounds i8, ptr %0, i64 16
  %3 = load ptr, ptr %2, align 8
  %4 = invoke noundef ptr @_ZNK10cmMakefile16GetCMakeInstanceEv(ptr noundef nonnull align 8 dereferenceable(3520) %3)
          to label %5 unwind label %9

5:                                                ; preds = %1
  %6 = getelementptr inbounds i8, ptr %4, i64 1896
  %7 = load ptr, ptr %6, align 8
  %8 = getelementptr inbounds i8, ptr %0, i64 24
  invoke void @_ZN15cmVariableWatch11RemoveWatchERKNSt7__cxx1112basic_stringIcSt11char_traitsIcESaIcEEEPFvS7_iPvPKcPK10cmMakefileES8_(ptr noundef nonnull align 8 dereferenceable(48) %7, ptr noundef nonnull align 8 dereferenceable(32) %8, ptr noundef nonnull @_ZN12_GLOBAL__N_138cmVariableWatchCommandVariableAccessedERKNSt7__cxx1112basic_stringIcSt11char_traitsIcESaIcEEEiPvPKcPK10cmMakefile, ptr noundef null)
          to label %_ZNSt16allocator_traitsISaIvEE7destroyIN12_GLOBAL__N_111FinalAction4ImplEEEvRS0_PT_.exit unwind label %9

9:                                                ; preds = %5, %1
  %10 = landingpad { ptr, i32 }
          catch ptr null
  %11 = extractvalue { ptr, i32 } %10, 0
  tail call void @__clang_call_terminate(ptr %11) #19
  unreachable

_ZNSt16allocator_traitsISaIvEE7destroyIN12_GLOBAL__N_111FinalAction4ImplEEEvRS0_PT_.exit: ; preds = %5
  tail call void @_ZNSt7__cxx1112basic_stringIcSt11char_traitsIcESaIcEED1Ev(ptr noundef nonnull align 8 dereferenceable(32) %8) #16
  ret void
}